target datalayout = "e-m:e-p270:32:32-p271:32:32-p272:64:64-i64:64-i128:128-f80:128-n8:16:32:64-S128"
target triple = "x86_64-pc-linux-gnu"

%"struct.faiss::IndexIVF" = type <{ %"struct.faiss::Index.base", [4 x i8], %"struct.faiss::IndexIVFInterface", ptr, i8, [7 x i8], i64, i32, i32, %"struct.faiss::DirectMap", i8, [7 x i8] }>
%"struct.faiss::Index.base" = type <{ ptr, i32, [4 x i8], i64, i8, i8, [2 x i8], i32, float }>
%"struct.faiss::IndexIVFInterface" = type { ptr, %"struct.faiss::Level1Quantizer", i64, i64 }
%"struct.faiss::Level1Quantizer" = type { ptr, i64, i8, i8, [6 x i8], %"struct.faiss::ClusteringParameters", ptr }
%"struct.faiss::ClusteringParameters" = type <{ i32, i32, i8, i8, i8, i8, i8, [3 x i8], i32, i32, i32, [4 x i8], i64, i8, i8, [6 x i8] }>
%"struct.faiss::DirectMap" = type { i32, %"class.std::vector", %"class.std::unordered_map" }
%"class.std::vector" = type { %"struct.std::_Vector_base" }
%"struct.std::_Vector_base" = type { %"struct.std::_Vector_base<long, std::allocator<long>>::_Vector_impl" }
%"struct.std::_Vector_base<long, std::allocator<long>>::_Vector_impl" = type { %"struct.std::_Vector_base<long, std::allocator<long>>::_Vector_impl_data" }
%"struct.std::_Vector_base<long, std::allocator<long>>::_Vector_impl_data" = type { ptr, ptr, ptr }
%"class.std::unordered_map" = type { %"class.std::_Hashtable" }
%"class.std::_Hashtable" = type { ptr, i64, %"struct.std::__detail::_Hash_node_base", i64, %"struct.std::__detail::_Prime_rehash_policy", ptr }
%"struct.std::__detail::_Hash_node_base" = type { ptr }
%"struct.std::__detail::_Prime_rehash_policy" = type { float, i64 }
%"struct.faiss::Index" = type <{ ptr, i32, [4 x i8], i64, i8, i8, [2 x i8], i32, float, [4 x i8] }>

; Function Attrs: mustprogress uwtable
define void @_ZNK5faiss12IndexIVFFlat9sa_decodeElPKhPf(ptr noundef nonnull align 8 dereferenceable(265) %0, i64 noundef %1, ptr noundef %2, ptr noundef %3) unnamed_addr #3 align 2 {
  %5 = alloca ptr, align 8
  %6 = alloca i64, align 8
  %7 = alloca ptr, align 8
  %8 = alloca ptr, align 8
  %9 = alloca i64, align 8
  %10 = alloca i64, align 8
  %11 = alloca ptr, align 8
  %12 = alloca ptr, align 8
  store ptr %0, ptr %5, align 8, !tbaa !4
  store i64 %1, ptr %6, align 8, !tbaa !9
  store ptr %2, ptr %7, align 8, !tbaa !11
  store ptr %3, ptr %8, align 8, !tbaa !13
  %13 = load ptr, ptr %5, align 8
  call void @llvm.lifetime.start.p0(i64 8, ptr %9) #12
  %14 = getelementptr inbounds i8, ptr %13, i64 48
  %15 = call noundef i64 @_ZNK5faiss15Level1Quantizer16coarse_code_sizeEv(ptr noundef nonnull align 8 dereferenceable(80) %14)
  store i64 %15, ptr %9, align 8, !tbaa !9
  call void @llvm.lifetime.start.p0(i64 8, ptr %10) #12
  store i64 0, ptr %10, align 8, !tbaa !9
  br label %16

16:                                               ; preds = %43, %4
  %17 = load i64, ptr %10, align 8, !tbaa !9
  %18 = load i64, ptr %6, align 8, !tbaa !9
  %19 = icmp ult i64 %17, %18
  br i1 %19, label %21, label %20

20:                                               ; preds = %16
  call void @llvm.lifetime.end.p0(i64 8, ptr %10) #12
  br label %46

21:                                               ; preds = %16
  call void @llvm.lifetime.start.p0(i64 8, ptr %11) #12
  %22 = load ptr, ptr %7, align 8, !tbaa !11
  %23 = load i64, ptr %10, align 8, !tbaa !9
  %24 = getelementptr inbounds nuw %"struct.faiss::IndexIVF", ptr %13, i32 0, i32 6
  %25 = load i64, ptr %24, align 8, !tbaa !15
  %26 = load i64, ptr %9, align 8, !tbaa !9
  %27 = add i64 %25, %26
  %28 = mul i64 %23, %27
  %29 = getelementptr inbounds nuw i8, ptr %22, i64 %28
  store ptr %29, ptr %11, align 8, !tbaa !11
  call void @llvm.lifetime.start.p0(i64 8, ptr %12) #12
  %30 = load ptr, ptr %8, align 8, !tbaa !13
  %31 = load i64, ptr %10, align 8, !tbaa !9
  %32 = getelementptr inbounds nuw %"struct.faiss::Index", ptr %13, i32 0, i32 1
  %33 = load i32, ptr %32, align 8, !tbaa !40
  %34 = sext i32 %33 to i64
  %35 = mul i64 %31, %34
  %36 = getelementptr inbounds nuw float, ptr %30, i64 %35
  store ptr %36, ptr %12, align 8, !tbaa !13
  %37 = load ptr, ptr %12, align 8, !tbaa !13
  %38 = load ptr, ptr %11, align 8, !tbaa !11
  %39 = load i64, ptr %9, align 8, !tbaa !9
  %40 = getelementptr inbounds nuw i8, ptr %38, i64 %39
  %41 = getelementptr inbounds nuw %"struct.faiss::IndexIVF", ptr %13, i32 0, i32 6
  %42 = load i64, ptr %41, align 8, !tbaa !15
  call void @llvm.memcpy.p0.p0.i64(ptr align 4 %37, ptr align 1 %40, i64 %42, i1 false)
  call void @llvm.lifetime.end.p0(i64 8, ptr %12) #12
  call void @llvm.lifetime.end.p0(i64 8, ptr %11) #12
  br label %43

43:                                               ; preds = %21
  %44 = load i64, ptr %10, align 8, !tbaa !9
  %45 = add i64 %44, 1
  store i64 %45, ptr %10, align 8, !tbaa !9
  br label %16, !llvm.loop !41

46:                                               ; preds = %20
  call void @llvm.lifetime.end.p0(i64 8, ptr %9) #12
  ret void
}