; Function Attrs: mustprogress uwtable
define void @_ZNK5faiss12IndexIVFFlat9sa_decodeElPKhPf(ptr noundef nonnull align 8 dereferenceable(265) %0, i64 noundef %1, ptr noundef readonly captures(none) %2, ptr noundef writeonly captures(none) %3) unnamed_addr #3 align 2 {
  %5 = getelementptr inbounds nuw i8, ptr %0, i64 48
  %6 = tail call noundef i64 @_ZNK5faiss15Level1Quantizer16coarse_code_sizeEv(ptr noundef nonnull align 8 dereferenceable(80) %5)
  %invariant.gep = getelementptr i8, ptr %2, i64 %6
  %.not = icmp eq i64 %1, 0
  br i1 %.not, label %._crit_edge, label %.lr.ph

.lr.ph:                                           ; preds = %4
  %7 = getelementptr inbounds nuw i8, ptr %0, i64 160
  %8 = getelementptr inbounds nuw i8, ptr %0, i64 8
  br label %9

._crit_edge:                                      ; preds = %9, %4
  ret void

9:                                                ; preds = %.lr.ph, %9
  %.011 = phi i64 [ 0, %.lr.ph ], [ %17, %9 ]
  %10 = load i64, ptr %7, align 8, !tbaa !4
  %11 = add i64 %10, %6
  %12 = mul i64 %11, %.011
  %13 = load i32, ptr %8, align 8, !tbaa !33
  %14 = sext i32 %13 to i64
  %15 = mul i64 %.011, %14
  %16 = getelementptr inbounds nuw float, ptr %3, i64 %15
  %gep = getelementptr i8, ptr %invariant.gep, i64 %12
  tail call void @llvm.memcpy.p0.p0.i64(ptr align 4 %16, ptr align 1 %gep, i64 %10, i1 false)
  %17 = add nuw i64 %.011, 1
  %exitcond.not = icmp eq i64 %17, %1
  br i1 %exitcond.not, label %._crit_edge, label %9, !llvm.loop !34
}